target datalayout = "e-m:e-p270:32:32-p271:32:32-p272:64:64-i64:64-i128:128-f80:128-n8:16:32:64-S128"
target triple = "x86_64-pc-linux-gnu"

@.str.6 = private unnamed_addr constant [35 x i8] c"map with mode MAP_SYNC unsupported\00", align 1
@.str.7 = private unnamed_addr constant [11 x i8] c"Map failed\00", align 1

; Function Attrs: nounwind uwtable
define internal i64 @handle(ptr noundef %0, i64 noundef %1, ptr noundef %2) #0 {
  %4 = alloca i64, align 8
  %5 = alloca ptr, align 8
  %6 = alloca i64, align 8
  %7 = alloca ptr, align 8
  store ptr %0, ptr %5, align 8
  store i64 %1, ptr %6, align 8
  store ptr %2, ptr %7, align 8
  %8 = load i64, ptr %6, align 8
  %9 = icmp sge i64 %8, 0
  br i1 %9, label %10, label %12

10:                                               ; preds = %3
  %11 = load i64, ptr %6, align 8
  store i64 %11, ptr %4, align 8
  br label %20

12:                                               ; preds = %3
  %13 = call ptr @__errno_location() #5
  %14 = load i32, ptr %13, align 4
  %15 = icmp eq i32 %14, 4
  br i1 %15, label %16, label %17

16:                                               ; preds = %12
  store i64 -3, ptr %4, align 8
  br label %20

17:                                               ; preds = %12
  %18 = load ptr, ptr %5, align 8
  %19 = load ptr, ptr %7, align 8
  call void @JNU_ThrowIOExceptionWithLastError(ptr noundef %18, ptr noundef %19)
  store i64 -5, ptr %4, align 8
  br label %20

20:                                               ; preds = %17, %16, %10
  %21 = load i64, ptr %4, align 8
  ret i64 %21
}

; Function Attrs: nounwind uwtable
define i64 @Java_sun_nio_ch_UnixFileDispatcherImpl_map0(ptr noundef %0, ptr noundef %1, ptr noundef %2, i32 noundef %3, i64 noundef %4, i64 noundef %5, i8 noundef zeroext %6) #0 {
  %8 = alloca i64, align 8
  %9 = alloca ptr, align 8
  %10 = alloca ptr, align 8
  %11 = alloca ptr, align 8
  %12 = alloca i32, align 4
  %13 = alloca i64, align 8
  %14 = alloca i64, align 8
  %15 = alloca i8, align 1
  %16 = alloca ptr, align 8
  %17 = alloca i32, align 4
  %18 = alloca i32, align 4
  %19 = alloca i32, align 4
  store ptr %0, ptr %9, align 8
  store ptr %1, ptr %10, align 8
  store ptr %2, ptr %11, align 8
  store i32 %3, ptr %12, align 4
  store i64 %4, ptr %13, align 8
  store i64 %5, ptr %14, align 8
  store i8 %6, ptr %15, align 1
  store ptr null, ptr %16, align 8
  %20 = load ptr, ptr %9, align 8
  %21 = load ptr, ptr %11, align 8
  %22 = call i32 @fdval(ptr noundef %20, ptr noundef %21)
  store i32 %22, ptr %17, align 4
  store i32 0, ptr %18, align 4
  store i32 0, ptr %19, align 4
  %23 = load i32, ptr %12, align 4
  %24 = sext i32 %23 to i64
  %25 = icmp eq i64 %24, 0
  br i1 %25, label %26, label %27

26:                                               ; preds = %7
  store i32 1, ptr %18, align 4
  store i32 1, ptr %19, align 4
  br label %39

27:                                               ; preds = %7
  %28 = load i32, ptr %12, align 4
  %29 = sext i32 %28 to i64
  %30 = icmp eq i64 %29, 1
  br i1 %30, label %31, label %32

31:                                               ; preds = %27
  store i32 3, ptr %18, align 4
  store i32 1, ptr %19, align 4
  br label %38

32:                                               ; preds = %27
  %33 = load i32, ptr %12, align 4
  %34 = sext i32 %33 to i64
  %35 = icmp eq i64 %34, 2
  br i1 %35, label %36, label %37

36:                                               ; preds = %32
  store i32 3, ptr %18, align 4
  store i32 2, ptr %19, align 4
  br label %37

37:                                               ; preds = %36, %32
  br label %38

38:                                               ; preds = %37, %31
  br label %39

39:                                               ; preds = %38, %26
  %40 = load i8, ptr %15, align 1
  %41 = icmp ne i8 %40, 0
  br i1 %41, label %42, label %45

42:                                               ; preds = %39
  %43 = load i32, ptr %19, align 4
  %44 = or i32 %43, 524291
  store i32 %44, ptr %19, align 4
  br label %45

45:                                               ; preds = %42, %39
  %46 = load i64, ptr %14, align 8
  %47 = load i32, ptr %18, align 4
  %48 = load i32, ptr %19, align 4
  %49 = load i32, ptr %17, align 4
  %50 = load i64, ptr %13, align 8
  %51 = call ptr @mmap64(ptr noundef null, i64 noundef %46, i32 noundef %47, i32 noundef %48, i32 noundef %49, i64 noundef %50) #4
  store ptr %51, ptr %16, align 8
  %52 = load ptr, ptr %16, align 8
  %53 = icmp eq ptr %52, inttoptr (i64 -1 to ptr)
  br i1 %53, label %54, label %73

54:                                               ; preds = %45
  %55 = load i8, ptr %15, align 1
  %56 = zext i8 %55 to i32
  %57 = icmp ne i32 %56, 0
  br i1 %57, label %58, label %64

58:                                               ; preds = %54
  %59 = call ptr @__errno_location() #5
  %60 = load i32, ptr %59, align 4
  %61 = icmp eq i32 %60, 95
  br i1 %61, label %62, label %64

62:                                               ; preds = %58
  %63 = load ptr, ptr %9, align 8
  call void @JNU_ThrowIOExceptionWithLastError(ptr noundef %63, ptr noundef @.str.6)
  store i64 -5, ptr %8, align 8
  br label %76

64:                                               ; preds = %58, %54
  %65 = call ptr @__errno_location() #5
  %66 = load i32, ptr %65, align 4
  %67 = icmp eq i32 %66, 12
  br i1 %67, label %68, label %70

68:                                               ; preds = %64
  %69 = load ptr, ptr %9, align 8
  call void @JNU_ThrowOutOfMemoryError(ptr noundef %69, ptr noundef @.str.7)
  store i64 -5, ptr %8, align 8
  br label %76

70:                                               ; preds = %64
  %71 = load ptr, ptr %9, align 8
  %72 = call i64 @handle(ptr noundef %71, i64 noundef -1, ptr noundef @.str.7)
  store i64 %72, ptr %8, align 8
  br label %76

73:                                               ; preds = %45
  %74 = load ptr, ptr %16, align 8
  %75 = ptrtoint ptr %74 to i64
  store i64 %75, ptr %8, align 8
  br label %76

76:                                               ; preds = %73, %70, %68, %62
  %77 = load i64, ptr %8, align 8
  ret i64 %77
}