; Function Attrs: nounwind uwtable
define i64 @Java_sun_nio_ch_UnixFileDispatcherImpl_map0(ptr noundef %0, ptr nocapture noundef readnone %1, ptr noundef %2, i32 noundef %3, i64 noundef %4, i64 noundef %5, i8 noundef zeroext %6) local_unnamed_addr #0 {
  %8 = tail call i32 @fdval(ptr noundef %0, ptr noundef %2) #6
  %9 = icmp ult i32 %3, 3
  br i1 %9, label %switch.lookup, label %.fold.split

switch.lookup:                                    ; preds = %7
  %10 = zext nneg i32 %3 to i64
  %switch.gep = getelementptr inbounds [3 x i32], ptr @switch.table.Java_sun_nio_ch_UnixFileDispatcherImpl_map0, i64 0, i64 %10
  %switch.load = load i32, ptr %switch.gep, align 4
  %11 = zext nneg i32 %3 to i64
  %switch.gep23 = getelementptr inbounds [3 x i32], ptr @switch.table.Java_sun_nio_ch_UnixFileDispatcherImpl_map0.1, i64 0, i64 %11
  %switch.load24 = load i32, ptr %switch.gep23, align 4
  br label %.fold.split

.fold.split:                                      ; preds = %7, %switch.lookup
  %.018 = phi i32 [ %switch.load, %switch.lookup ], [ 0, %7 ]
  %.0 = phi i32 [ %switch.load24, %switch.lookup ], [ 0, %7 ]
  %.not = icmp ne i8 %6, 0
  %spec.select = select i1 %.not, i32 524291, i32 %.0
  %12 = tail call ptr @mmap64(ptr noundef null, i64 noundef %5, i32 noundef %.018, i32 noundef %spec.select, i32 noundef %8, i64 noundef %4) #6
  %13 = icmp eq ptr %12, inttoptr (i64 -1 to ptr)
  br i1 %13, label %14, label %19

14:                                               ; preds = %.fold.split
  %.pre = tail call ptr @__errno_location() #7
  %.pr = load i32, ptr %.pre, align 4
  %15 = icmp eq i32 %.pr, 95
  %or.cond = select i1 %.not, i1 %15, i1 false
  br i1 %or.cond, label %16, label %._crit_edge

16:                                               ; preds = %14
  tail call void @JNU_ThrowIOExceptionWithLastError(ptr noundef %0, ptr noundef nonnull @.str.6) #6
  br label %handle.exit

._crit_edge:                                      ; preds = %14
  switch i32 %.pr, label %18 [
    i32 12, label %17
    i32 4, label %handle.exit
  ]

17:                                               ; preds = %._crit_edge
  tail call void @JNU_ThrowOutOfMemoryError(ptr noundef %0, ptr noundef nonnull @.str.7) #6
  br label %handle.exit

18:                                               ; preds = %._crit_edge
  tail call void @JNU_ThrowIOExceptionWithLastError(ptr noundef %0, ptr noundef nonnull @.str.7) #6
  br label %handle.exit

19:                                               ; preds = %.fold.split
  %20 = ptrtoint ptr %12 to i64
  br label %handle.exit

handle.exit:                                      ; preds = %._crit_edge, %18, %19, %17, %16
  %.019 = phi i64 [ -5, %16 ], [ -5, %17 ], [ %20, %19 ], [ -5, %18 ], [ -3, %._crit_edge ]
  ret i64 %.019
}